; Function Attrs: mustprogress uwtable
define dso_local void @_ZN9CGOptions8go_deltaENSt7__cxx1112basic_stringIcSt11char_traitsIcESaIcEEE(ptr dead_on_unwind noalias writable sret(%"class.std::__cxx11::basic_string") align 8 %0, ptr noundef nonnull %1) local_unnamed_addr #7 align 2 personality ptr @__gxx_personality_v0 {
  tail call void @_ZNSt7__cxx1112basic_stringIcSt11char_traitsIcESaIcEE9_M_assignERKS4_(ptr noundef nonnull align 8 dereferenceable(32) @_ZN9CGOptions9go_delta_B5cxx11E, ptr noundef nonnull align 8 dereferenceable(32) %1)
  %3 = getelementptr inbounds nuw i8, ptr %0, i64 16
  store ptr %3, ptr %0, align 8, !tbaa !23
  %4 = load ptr, ptr %1, align 8, !tbaa !26
  %5 = getelementptr inbounds nuw i8, ptr %1, i64 16
  %6 = icmp eq ptr %4, %5
  br i1 %6, label %7, label %_ZNKSt7__cxx1112basic_stringIcSt11char_traitsIcESaIcEE11_M_is_localEv.exit.i

7:                                                ; preds = %2
  %8 = getelementptr inbounds nuw i8, ptr %1, i64 8
  %9 = load i64, ptr %8, align 8, !tbaa !28
  %10 = icmp ult i64 %9, 16
  tail call void @llvm.assume(i1 %10)
  %11 = add nuw nsw i64 %9, 1
  tail call void @llvm.memcpy.p0.p0.i64(ptr noundef nonnull align 8 dereferenceable(1) %3, ptr noundef nonnull align 8 dereferenceable(1) %5, i64 %11, i1 false)
  br label %_ZNSt7__cxx1112basic_stringIcSt11char_traitsIcESaIcEEC2EOS4_.exit

_ZNKSt7__cxx1112basic_stringIcSt11char_traitsIcESaIcEE11_M_is_localEv.exit.i: ; preds = %2
  store ptr %4, ptr %0, align 8, !tbaa !26
  %12 = load i64, ptr %5, align 8, !tbaa !30
  store i64 %12, ptr %3, align 8, !tbaa !30
  %.phi.trans.insert = getelementptr inbounds nuw i8, ptr %1, i64 8
  %.pre = load i64, ptr %.phi.trans.insert, align 8, !tbaa !28
  br label %_ZNSt7__cxx1112basic_stringIcSt11char_traitsIcESaIcEEC2EOS4_.exit

_ZNSt7__cxx1112basic_stringIcSt11char_traitsIcESaIcEEC2EOS4_.exit: ; preds = %7, %_ZNKSt7__cxx1112basic_stringIcSt11char_traitsIcESaIcEE11_M_is_localEv.exit.i
  %13 = phi i64 [ %9, %7 ], [ %.pre, %_ZNKSt7__cxx1112basic_stringIcSt11char_traitsIcESaIcEE11_M_is_localEv.exit.i ]
  %14 = getelementptr inbounds nuw i8, ptr %1, i64 8
  %15 = getelementptr inbounds nuw i8, ptr %0, i64 8
  store i64 %13, ptr %15, align 8, !tbaa !28
  store ptr %5, ptr %1, align 8, !tbaa !26
  store i64 0, ptr %14, align 8, !tbaa !28
  store i8 0, ptr %5, align 1, !tbaa !30
  ret void
}